target datalayout = "e-m:e-p270:32:32-p271:32:32-p272:64:64-i64:64-i128:128-f80:128-n8:16:32:64-S128"
target triple = "x86_64-pc-linux-gnu"

%struct.t_ebin = type { i32, ptr, i64, i64, ptr, i64, i64, ptr }
%struct.t_energy = type { float, double, double }
%"class.std::filesystem::__cxx11::path" = type { %"class.std::__cxx11::basic_string", %"struct.std::filesystem::__cxx11::path::_List" }
%"class.std::__cxx11::basic_string" = type { %"struct.std::__cxx11::basic_string<char>::_Alloc_hider", i64, %union.anon }
%"struct.std::__cxx11::basic_string<char>::_Alloc_hider" = type { ptr }
%union.anon = type { i64, [8 x i8] }
%"struct.std::filesystem::__cxx11::path::_List" = type { %"class.std::unique_ptr" }
%"class.std::unique_ptr" = type { %"struct.std::__uniq_ptr_data" }
%"struct.std::__uniq_ptr_data" = type { %"class.std::__uniq_ptr_impl" }
%"class.std::__uniq_ptr_impl" = type { %"class.std::tuple" }
%"class.std::tuple" = type { %"struct.std::_Tuple_impl" }
%"struct.std::_Tuple_impl" = type { %"struct.std::_Head_base.1" }
%"struct.std::_Head_base.1" = type { ptr }

@.str.1 = private unnamed_addr constant [120 x i8] c"generated/home/dtcxzyw/WorkSpace/Projects/compilers/llvm-opt-benchmark/bench/gromacs/gromacs/src/gromacs/mdlib/ebin.cpp\00", align 1
@.str.12 = private unnamed_addr constant [64 x i8] c"%s-%d: Energies out of range: entryIndex=%d nener=%d maxener=%d\00", align 1

; Function Attrs: mustprogress uwtable
define void @_Z8add_ebinP6t_ebiniiPKfb(ptr noundef %0, i32 noundef %1, i32 noundef %2, ptr noundef %3, i1 noundef zeroext %4) #0 personality ptr @__gxx_personality_v0 {
  %6 = alloca ptr, align 8
  %7 = alloca i32, align 4
  %8 = alloca i32, align 4
  %9 = alloca ptr, align 8
  %10 = alloca i8, align 1
  %11 = alloca i32, align 4
  %12 = alloca i32, align 4
  %13 = alloca double, align 8
  %14 = alloca double, align 8
  %15 = alloca double, align 8
  %16 = alloca ptr, align 8
  %17 = alloca ptr, align 8
  %18 = alloca %"class.std::filesystem::__cxx11::path", align 8
  %19 = alloca ptr, align 8
  %20 = alloca i32, align 4
  store ptr %0, ptr %6, align 8, !tbaa !4
  store i32 %1, ptr %7, align 4, !tbaa !11
  store i32 %2, ptr %8, align 4, !tbaa !11
  store ptr %3, ptr %9, align 8, !tbaa !46
  %21 = zext i1 %4 to i8
  store i8 %21, ptr %10, align 1, !tbaa !48
  call void @llvm.lifetime.start.p0(i64 4, ptr %11) #14
  call void @llvm.lifetime.start.p0(i64 4, ptr %12) #14
  call void @llvm.lifetime.start.p0(i64 8, ptr %13) #14
  call void @llvm.lifetime.start.p0(i64 8, ptr %14) #14
  call void @llvm.lifetime.start.p0(i64 8, ptr %15) #14
  call void @llvm.lifetime.start.p0(i64 8, ptr %16) #14
  call void @llvm.lifetime.start.p0(i64 8, ptr %17) #14
  %22 = load i32, ptr %7, align 4, !tbaa !11
  %23 = load i32, ptr %8, align 4, !tbaa !11
  %24 = add nsw i32 %22, %23
  %25 = load ptr, ptr %6, align 8, !tbaa !4
  %26 = getelementptr inbounds nuw %struct.t_ebin, ptr %25, i32 0, i32 0
  %27 = load i32, ptr %26, align 8, !tbaa !18
  %28 = icmp sgt i32 %24, %27
  br i1 %28, label %32, label %29

29:                                               ; preds = %5
  %30 = load i32, ptr %7, align 4, !tbaa !11
  %31 = icmp slt i32 %30, 0
  br i1 %31, label %32, label %43

32:                                               ; preds = %29, %5
  call void @llvm.lifetime.start.p0(i64 40, ptr %18) #14
  call void @_ZNSt10filesystem7__cxx114pathC2IA120_cS1_EERKT_NS1_6formatE(ptr noundef nonnull align 8 dereferenceable(40) %18, ptr noundef nonnull align 1 dereferenceable(120) @.str.1, i8 noundef zeroext 2)
  %33 = load i32, ptr %7, align 4, !tbaa !11
  %34 = load i32, ptr %8, align 4, !tbaa !11
  %35 = load ptr, ptr %6, align 8, !tbaa !4
  %36 = getelementptr inbounds nuw %struct.t_ebin, ptr %35, i32 0, i32 0
  %37 = load i32, ptr %36, align 8, !tbaa !18
  invoke void (i32, ptr, i32, ptr, ...) @_Z9gmx_fataliRKNSt10filesystem7__cxx114pathEiPKcz(i32 noundef 0, ptr noundef nonnull align 8 dereferenceable(40) %18, i32 noundef 143, ptr noundef @.str.12, ptr noundef @.str.1, i32 noundef 146, i32 noundef %33, i32 noundef %34, i32 noundef %37) #16
          to label %38 unwind label %39

38:                                               ; preds = %32
  unreachable

39:                                               ; preds = %32
  %40 = landingpad { ptr, i32 }
          cleanup
  %41 = extractvalue { ptr, i32 } %40, 0
  store ptr %41, ptr %19, align 8
  %42 = extractvalue { ptr, i32 } %40, 1
  store i32 %42, ptr %20, align 4
  call void @_ZNSt10filesystem7__cxx114pathD2Ev(ptr noundef nonnull align 8 dereferenceable(40) %18) #14
  call void @llvm.lifetime.end.p0(i64 40, ptr %18) #14
  call void @llvm.lifetime.end.p0(i64 8, ptr %17) #14
  call void @llvm.lifetime.end.p0(i64 8, ptr %16) #14
  call void @llvm.lifetime.end.p0(i64 8, ptr %15) #14
  call void @llvm.lifetime.end.p0(i64 8, ptr %14) #14
  call void @llvm.lifetime.end.p0(i64 8, ptr %13) #14
  call void @llvm.lifetime.end.p0(i64 4, ptr %12) #14
  call void @llvm.lifetime.end.p0(i64 4, ptr %11) #14
  br label %186

43:                                               ; preds = %29
  %44 = load ptr, ptr %6, align 8, !tbaa !4
  %45 = getelementptr inbounds nuw %struct.t_ebin, ptr %44, i32 0, i32 4
  %46 = load ptr, ptr %45, align 8, !tbaa !27
  %47 = load i32, ptr %7, align 4, !tbaa !11
  %48 = sext i32 %47 to i64
  %49 = getelementptr inbounds %struct.t_energy, ptr %46, i64 %48
  store ptr %49, ptr %16, align 8, !tbaa !29
  store i32 0, ptr %11, align 4, !tbaa !11
  br label %50

50:                                               ; preds = %65, %43
  %51 = load i32, ptr %11, align 4, !tbaa !11
  %52 = load i32, ptr %8, align 4, !tbaa !11
  %53 = icmp slt i32 %51, %52
  br i1 %53, label %54, label %68

54:                                               ; preds = %50
  %55 = load ptr, ptr %9, align 8, !tbaa !46
  %56 = load i32, ptr %11, align 4, !tbaa !11
  %57 = sext i32 %56 to i64
  %58 = getelementptr inbounds float, ptr %55, i64 %57
  %59 = load float, ptr %58, align 4, !tbaa !50
  %60 = load ptr, ptr %16, align 8, !tbaa !29
  %61 = load i32, ptr %11, align 4, !tbaa !11
  %62 = sext i32 %61 to i64
  %63 = getelementptr inbounds %struct.t_energy, ptr %60, i64 %62
  %64 = getelementptr inbounds nuw %struct.t_energy, ptr %63, i32 0, i32 0
  store float %59, ptr %64, align 8, !tbaa !33
  br label %65

65:                                               ; preds = %54
  %66 = load i32, ptr %11, align 4, !tbaa !11
  %67 = add nsw i32 %66, 1
  store i32 %67, ptr %11, align 4, !tbaa !11
  br label %50, !llvm.loop !51

68:                                               ; preds = %50
  %69 = load i8, ptr %10, align 1, !tbaa !48, !range !52, !noundef !53
  %70 = trunc i8 %69 to i1
  br i1 %70, label %71, label %185

71:                                               ; preds = %68
  %72 = load ptr, ptr %6, align 8, !tbaa !4
  %73 = getelementptr inbounds nuw %struct.t_ebin, ptr %72, i32 0, i32 7
  %74 = load ptr, ptr %73, align 8, !tbaa !28
  %75 = load i32, ptr %7, align 4, !tbaa !11
  %76 = sext i32 %75 to i64
  %77 = getelementptr inbounds %struct.t_energy, ptr %74, i64 %76
  store ptr %77, ptr %17, align 8, !tbaa !29
  %78 = load ptr, ptr %6, align 8, !tbaa !4
  %79 = getelementptr inbounds nuw %struct.t_ebin, ptr %78, i32 0, i32 3
  %80 = load i64, ptr %79, align 8, !tbaa !54
  %81 = trunc i64 %80 to i32
  store i32 %81, ptr %12, align 4, !tbaa !11
  %82 = load i32, ptr %12, align 4, !tbaa !11
  %83 = icmp eq i32 %82, 0
  br i1 %83, label %84, label %123

84:                                               ; preds = %71
  store i32 0, ptr %11, align 4, !tbaa !11
  br label %85

85:                                               ; preds = %119, %84
  %86 = load i32, ptr %11, align 4, !tbaa !11
  %87 = load i32, ptr %8, align 4, !tbaa !11
  %88 = icmp slt i32 %86, %87
  br i1 %88, label %89, label %122

89:                                               ; preds = %85
  %90 = load ptr, ptr %16, align 8, !tbaa !29
  %91 = load i32, ptr %11, align 4, !tbaa !11
  %92 = sext i32 %91 to i64
  %93 = getelementptr inbounds %struct.t_energy, ptr %90, i64 %92
  %94 = getelementptr inbounds nuw %struct.t_energy, ptr %93, i32 0, i32 1
  store double 0.000000e+00, ptr %94, align 8, !tbaa !37
  %95 = load ptr, ptr %9, align 8, !tbaa !46
  %96 = load i32, ptr %11, align 4, !tbaa !11
  %97 = sext i32 %96 to i64
  %98 = getelementptr inbounds float, ptr %95, i64 %97
  %99 = load float, ptr %98, align 4, !tbaa !50
  %100 = fpext float %99 to double
  %101 = load ptr, ptr %16, align 8, !tbaa !29
  %102 = load i32, ptr %11, align 4, !tbaa !11
  %103 = sext i32 %102 to i64
  %104 = getelementptr inbounds %struct.t_energy, ptr %101, i64 %103
  %105 = getelementptr inbounds nuw %struct.t_energy, ptr %104, i32 0, i32 2
  store double %100, ptr %105, align 8, !tbaa !38
  %106 = load ptr, ptr %9, align 8, !tbaa !46
  %107 = load i32, ptr %11, align 4, !tbaa !11
  %108 = sext i32 %107 to i64
  %109 = getelementptr inbounds float, ptr %106, i64 %108
  %110 = load float, ptr %109, align 4, !tbaa !50
  %111 = fpext float %110 to double
  %112 = load ptr, ptr %17, align 8, !tbaa !29
  %113 = load i32, ptr %11, align 4, !tbaa !11
  %114 = sext i32 %113 to i64
  %115 = getelementptr inbounds %struct.t_energy, ptr %112, i64 %114
  %116 = getelementptr inbounds nuw %struct.t_energy, ptr %115, i32 0, i32 2
  %117 = load double, ptr %116, align 8, !tbaa !38
  %118 = fadd double %117, %111
  store double %118, ptr %116, align 8, !tbaa !38
  br label %119

119:                                              ; preds = %89
  %120 = load i32, ptr %11, align 4, !tbaa !11
  %121 = add nsw i32 %120, 1
  store i32 %121, ptr %11, align 4, !tbaa !11
  br label %85, !llvm.loop !55

122:                                              ; preds = %85
  br label %184

123:                                              ; preds = %71
  %124 = load i32, ptr %12, align 4, !tbaa !11
  %125 = sitofp i32 %124 to double
  %126 = fdiv double 1.000000e+00, %125
  %127 = load i32, ptr %12, align 4, !tbaa !11
  %128 = sitofp i32 %127 to double
  %129 = fadd double %128, 1.000000e+00
  %130 = fdiv double %126, %129
  store double %130, ptr %14, align 8, !tbaa !56
  store i32 0, ptr %11, align 4, !tbaa !11
  br label %131

131:                                              ; preds = %180, %123
  %132 = load i32, ptr %11, align 4, !tbaa !11
  %133 = load i32, ptr %8, align 4, !tbaa !11
  %134 = icmp slt i32 %132, %133
  br i1 %134, label %135, label %183

135:                                              ; preds = %131
  %136 = load ptr, ptr %9, align 8, !tbaa !46
  %137 = load i32, ptr %11, align 4, !tbaa !11
  %138 = sext i32 %137 to i64
  %139 = getelementptr inbounds float, ptr %136, i64 %138
  %140 = load float, ptr %139, align 4, !tbaa !50
  %141 = fpext float %140 to double
  store double %141, ptr %13, align 8, !tbaa !56
  %142 = load ptr, ptr %16, align 8, !tbaa !29
  %143 = load i32, ptr %11, align 4, !tbaa !11
  %144 = sext i32 %143 to i64
  %145 = getelementptr inbounds %struct.t_energy, ptr %142, i64 %144
  %146 = getelementptr inbounds nuw %struct.t_energy, ptr %145, i32 0, i32 2
  %147 = load double, ptr %146, align 8, !tbaa !38
  %148 = load i32, ptr %12, align 4, !tbaa !11
  %149 = sitofp i32 %148 to double
  %150 = load double, ptr %13, align 8, !tbaa !56
  %151 = fneg double %149
  %152 = call double @llvm.fmuladd.f64(double %151, double %150, double %147)
  store double %152, ptr %15, align 8, !tbaa !56
  %153 = load double, ptr %15, align 8, !tbaa !56
  %154 = load double, ptr %15, align 8, !tbaa !56
  %155 = fmul double %153, %154
  %156 = load double, ptr %14, align 8, !tbaa !56
  %157 = load ptr, ptr %16, align 8, !tbaa !29
  %158 = load i32, ptr %11, align 4, !tbaa !11
  %159 = sext i32 %158 to i64
  %160 = getelementptr inbounds %struct.t_energy, ptr %157, i64 %159
  %161 = getelementptr inbounds nuw %struct.t_energy, ptr %160, i32 0, i32 1
  %162 = load double, ptr %161, align 8, !tbaa !37
  %163 = call double @llvm.fmuladd.f64(double %155, double %156, double %162)
  store double %163, ptr %161, align 8, !tbaa !37
  %164 = load double, ptr %13, align 8, !tbaa !56
  %165 = load ptr, ptr %16, align 8, !tbaa !29
  %166 = load i32, ptr %11, align 4, !tbaa !11
  %167 = sext i32 %166 to i64
  %168 = getelementptr inbounds %struct.t_energy, ptr %165, i64 %167
  %169 = getelementptr inbounds nuw %struct.t_energy, ptr %168, i32 0, i32 2
  %170 = load double, ptr %169, align 8, !tbaa !38
  %171 = fadd double %170, %164
  store double %171, ptr %169, align 8, !tbaa !38
  %172 = load double, ptr %13, align 8, !tbaa !56
  %173 = load ptr, ptr %17, align 8, !tbaa !29
  %174 = load i32, ptr %11, align 4, !tbaa !11
  %175 = sext i32 %174 to i64
  %176 = getelementptr inbounds %struct.t_energy, ptr %173, i64 %175
  %177 = getelementptr inbounds nuw %struct.t_energy, ptr %176, i32 0, i32 2
  %178 = load double, ptr %177, align 8, !tbaa !38
  %179 = fadd double %178, %172
  store double %179, ptr %177, align 8, !tbaa !38
  br label %180

180:                                              ; preds = %135
  %181 = load i32, ptr %11, align 4, !tbaa !11
  %182 = add nsw i32 %181, 1
  store i32 %182, ptr %11, align 4, !tbaa !11
  br label %131, !llvm.loop !57

183:                                              ; preds = %131
  br label %184

184:                                              ; preds = %183, %122
  br label %185

185:                                              ; preds = %184, %68
  call void @llvm.lifetime.end.p0(i64 8, ptr %17) #14
  call void @llvm.lifetime.end.p0(i64 8, ptr %16) #14
  call void @llvm.lifetime.end.p0(i64 8, ptr %15) #14
  call void @llvm.lifetime.end.p0(i64 8, ptr %14) #14
  call void @llvm.lifetime.end.p0(i64 8, ptr %13) #14
  call void @llvm.lifetime.end.p0(i64 4, ptr %12) #14
  call void @llvm.lifetime.end.p0(i64 4, ptr %11) #14
  ret void

186:                                              ; preds = %39
  %187 = load ptr, ptr %19, align 8
  %188 = load i32, ptr %20, align 4
  %189 = insertvalue { ptr, i32 } poison, ptr %187, 0
  %190 = insertvalue { ptr, i32 } %189, i32 %188, 1
  resume { ptr, i32 } %190
}