; Function Attrs: mustprogress uwtable
define void @_Z8add_ebinP6t_ebiniiPKfb(ptr noundef readonly captures(none) %0, i32 noundef %1, i32 noundef %2, ptr noundef readonly captures(none) %3, i1 noundef zeroext %4) local_unnamed_addr #0 personality ptr @__gxx_personality_v0 {
  %6 = alloca %"class.std::filesystem::__cxx11::path", align 8
  %7 = add nsw i32 %2, %1
  %8 = load i32, ptr %0, align 8, !tbaa !4
  %9 = icmp sgt i32 %7, %8
  %10 = icmp slt i32 %1, 0
  %or.cond = or i1 %10, %9
  br i1 %or.cond, label %11, label %16

11:                                               ; preds = %5
  call void @llvm.lifetime.start.p0(i64 40, ptr nonnull %6) #17
  call void @_ZNSt10filesystem7__cxx114pathC2IA120_cS1_EERKT_NS1_6formatE(ptr noundef nonnull align 8 dereferenceable(40) %6, ptr noundef nonnull align 1 dereferenceable(120) @.str.1, i8 noundef zeroext 2)
  %12 = load i32, ptr %0, align 8, !tbaa !4
  invoke void (i32, ptr, i32, ptr, ...) @_Z9gmx_fataliRKNSt10filesystem7__cxx114pathEiPKcz(i32 noundef 0, ptr noundef nonnull align 8 dereferenceable(40) %6, i32 noundef 143, ptr noundef nonnull @.str.12, ptr noundef nonnull @.str.1, i32 noundef 146, i32 noundef %1, i32 noundef %2, i32 noundef %12) #18
          to label %13 unwind label %14

13:                                               ; preds = %11
  unreachable

14:                                               ; preds = %11
  %15 = landingpad { ptr, i32 }
          cleanup
  call void @_ZNSt10filesystem7__cxx114pathD2Ev(ptr noundef nonnull align 8 dereferenceable(40) %6) #17
  call void @llvm.lifetime.end.p0(i64 40, ptr nonnull %6) #17
  resume { ptr, i32 } %15

16:                                               ; preds = %5
  %17 = getelementptr inbounds nuw i8, ptr %0, i64 32
  %18 = load ptr, ptr %17, align 8, !tbaa !12
  %19 = zext nneg i32 %1 to i64
  %20 = getelementptr inbounds nuw %struct.t_energy, ptr %18, i64 %19
  %21 = icmp sgt i32 %2, 0
  br i1 %21, label %.lr.ph.preheader, label %._crit_edge

.lr.ph.preheader:                                 ; preds = %16
  %wide.trip.count = zext nneg i32 %2 to i64
  br label %.lr.ph

.lr.ph:                                           ; preds = %.lr.ph.preheader, %.lr.ph
  %indvars.iv = phi i64 [ 0, %.lr.ph.preheader ], [ %indvars.iv.next, %.lr.ph ]
  %22 = getelementptr inbounds nuw float, ptr %3, i64 %indvars.iv
  %23 = load float, ptr %22, align 4, !tbaa !32
  %24 = getelementptr inbounds nuw %struct.t_energy, ptr %20, i64 %indvars.iv
  store float %23, ptr %24, align 8, !tbaa !23
  %indvars.iv.next = add nuw nsw i64 %indvars.iv, 1
  %exitcond.not = icmp eq i64 %indvars.iv.next, %wide.trip.count
  br i1 %exitcond.not, label %._crit_edge, label %.lr.ph, !llvm.loop !33

._crit_edge:                                      ; preds = %.lr.ph, %16
  br i1 %4, label %25, label %.loopexit

25:                                               ; preds = %._crit_edge
  %26 = getelementptr inbounds nuw i8, ptr %0, i64 56
  %27 = load ptr, ptr %26, align 8, !tbaa !13
  %28 = getelementptr inbounds nuw %struct.t_energy, ptr %27, i64 %19
  %29 = getelementptr inbounds nuw i8, ptr %0, i64 24
  %30 = load i64, ptr %29, align 8, !tbaa !34
  %31 = trunc i64 %30 to i32
  %32 = icmp eq i32 %31, 0
  br i1 %32, label %.preheader, label %42

.preheader:                                       ; preds = %25
  br i1 %21, label %.lr.ph67.preheader, label %.loopexit

.lr.ph67.preheader:                               ; preds = %.preheader
  %wide.trip.count78 = zext nneg i32 %2 to i64
  br label %.lr.ph67

.lr.ph67:                                         ; preds = %.lr.ph67.preheader, %.lr.ph67
  %indvars.iv75 = phi i64 [ 0, %.lr.ph67.preheader ], [ %indvars.iv.next76, %.lr.ph67 ]
  %33 = getelementptr inbounds nuw %struct.t_energy, ptr %20, i64 %indvars.iv75
  %34 = getelementptr inbounds nuw i8, ptr %33, i64 8
  store double 0.000000e+00, ptr %34, align 8, !tbaa !35
  %35 = getelementptr inbounds nuw float, ptr %3, i64 %indvars.iv75
  %36 = load float, ptr %35, align 4, !tbaa !32
  %37 = fpext float %36 to double
  %38 = getelementptr inbounds nuw i8, ptr %33, i64 16
  store double %37, ptr %38, align 8, !tbaa !36
  %39 = getelementptr inbounds nuw %struct.t_energy, ptr %28, i64 %indvars.iv75, i32 2
  %40 = load double, ptr %39, align 8, !tbaa !36
  %41 = fadd double %40, %37
  store double %41, ptr %39, align 8, !tbaa !36
  %indvars.iv.next76 = add nuw nsw i64 %indvars.iv75, 1
  %exitcond79.not = icmp eq i64 %indvars.iv.next76, %wide.trip.count78
  br i1 %exitcond79.not, label %.loopexit, label %.lr.ph67, !llvm.loop !37

42:                                               ; preds = %25
  %43 = sitofp i32 %31 to double
  %44 = fdiv double 1.000000e+00, %43
  %45 = fadd double %43, 1.000000e+00
  %46 = fdiv double %44, %45
  br i1 %21, label %.lr.ph65, label %.loopexit

.lr.ph65:                                         ; preds = %42
  %47 = fneg double %43
  %wide.trip.count73 = zext nneg i32 %2 to i64
  br label %48

48:                                               ; preds = %.lr.ph65, %48
  %indvars.iv70 = phi i64 [ 0, %.lr.ph65 ], [ %indvars.iv.next71, %48 ]
  %49 = getelementptr inbounds nuw float, ptr %3, i64 %indvars.iv70
  %50 = load float, ptr %49, align 4, !tbaa !32
  %51 = fpext float %50 to double
  %52 = getelementptr inbounds nuw %struct.t_energy, ptr %20, i64 %indvars.iv70
  %53 = getelementptr inbounds nuw i8, ptr %52, i64 16
  %54 = load double, ptr %53, align 8, !tbaa !36
  %55 = tail call double @llvm.fmuladd.f64(double %47, double %51, double %54)
  %56 = fmul double %55, %55
  %57 = getelementptr inbounds nuw i8, ptr %52, i64 8
  %58 = load double, ptr %57, align 8, !tbaa !35
  %59 = tail call double @llvm.fmuladd.f64(double %56, double %46, double %58)
  store double %59, ptr %57, align 8, !tbaa !35
  %60 = fadd double %54, %51
  store double %60, ptr %53, align 8, !tbaa !36
  %61 = getelementptr inbounds nuw %struct.t_energy, ptr %28, i64 %indvars.iv70, i32 2
  %62 = load double, ptr %61, align 8, !tbaa !36
  %63 = fadd double %62, %51
  store double %63, ptr %61, align 8, !tbaa !36
  %indvars.iv.next71 = add nuw nsw i64 %indvars.iv70, 1
  %exitcond74.not = icmp eq i64 %indvars.iv.next71, %wide.trip.count73
  br i1 %exitcond74.not, label %.loopexit, label %48, !llvm.loop !38

.loopexit:                                        ; preds = %48, %.lr.ph67, %42, %.preheader, %._crit_edge
  ret void
}